target datalayout = "e-m:e-p270:32:32-p271:32:32-p272:64:64-i64:64-i128:128-f80:128-n8:16:32:64-S128"
target triple = "x86_64-pc-linux-gnu"

%struct.anon = type { i8 }
%union.anon = type { %struct.anon.2 }
%struct.anon.2 = type { i8, i8, ptr, ptr }
%struct.ABIArgInfo_ = type { i32, i8, %struct.anon, %union.anon }
%struct.anon.3 = type { i32, ptr }

; Function Attrs: nounwind uwtable
define internal ptr @abi_arg_new(i32 noundef %0) #0 {
  %2 = alloca i32, align 4
  %3 = alloca ptr, align 8
  store i32 %0, ptr %2, align 4
  %4 = call ptr @calloc_arena(i64 noundef 32)
  store ptr %4, ptr %3, align 8
  %5 = load i32, ptr %2, align 4
  %6 = load ptr, ptr %3, align 8
  %7 = getelementptr inbounds %struct.ABIArgInfo_, ptr %6, i32 0, i32 1
  %8 = trunc i32 %5 to i8
  %9 = load i8, ptr %7, align 4
  %10 = and i8 %8, 63
  %11 = and i8 %9, -64
  %12 = or i8 %11, %10
  store i8 %12, ptr %7, align 4
  %13 = load ptr, ptr %3, align 8
  ret ptr %13
}

; Function Attrs: nounwind uwtable
define dso_local ptr @abi_arg_new_indirect_not_by_val(ptr noundef %0) #0 {
  %2 = alloca ptr, align 8
  %3 = alloca ptr, align 8
  store ptr %0, ptr %2, align 8
  %4 = call ptr @abi_arg_new(i32 noundef 7)
  store ptr %4, ptr %3, align 8
  %5 = load ptr, ptr %2, align 8
  %6 = call i32 @type_abi_alignment(ptr noundef %5)
  %7 = load ptr, ptr %3, align 8
  %8 = getelementptr inbounds %struct.ABIArgInfo_, ptr %7, i32 0, i32 3
  %9 = getelementptr inbounds %struct.anon.3, ptr %8, i32 0, i32 0
  store i32 %6, ptr %9, align 8
  %10 = load ptr, ptr %2, align 8
  %11 = load ptr, ptr %3, align 8
  %12 = getelementptr inbounds %struct.ABIArgInfo_, ptr %11, i32 0, i32 3
  %13 = getelementptr inbounds %struct.anon.3, ptr %12, i32 0, i32 1
  store ptr %10, ptr %13, align 8
  %14 = load ptr, ptr %3, align 8
  %15 = getelementptr inbounds %struct.ABIArgInfo_, ptr %14, i32 0, i32 2
  %16 = load i8, ptr %15, align 1
  %17 = and i8 %16, -17
  %18 = or i8 %17, 0
  store i8 %18, ptr %15, align 1
  %19 = load ptr, ptr %3, align 8
  ret ptr %19
}